; Function Attrs: nounwind uwtable
define internal void @recff_math_unary(ptr noundef %0, ptr noundef readonly captures(none) %1) #0 {
  %3 = getelementptr inbounds nuw i8, ptr %0, i64 160
  %4 = load ptr, ptr %3, align 8, !tbaa !37
  %5 = load i32, ptr %4, align 4, !tbaa !39
  %6 = tail call i32 @lj_ir_tonum(ptr noundef %0, i32 noundef %5) #9
  %7 = trunc i32 %6 to i16
  %8 = getelementptr inbounds nuw i8, ptr %1, i64 16
  %9 = load i32, ptr %8, align 8, !tbaa !29
  %10 = trunc i32 %9 to i16
  %11 = getelementptr inbounds nuw i8, ptr %0, i64 184
  %12 = getelementptr inbounds nuw i8, ptr %0, i64 188
  store i16 13326, ptr %12, align 4, !tbaa !4
  store i16 %7, ptr %11, align 8, !tbaa !4
  %13 = getelementptr inbounds nuw i8, ptr %0, i64 186
  store i16 %10, ptr %13, align 2, !tbaa !4
  %14 = tail call i32 @lj_opt_fold(ptr noundef %0) #9
  %15 = load ptr, ptr %3, align 8, !tbaa !37
  store i32 %14, ptr %15, align 4, !tbaa !39
  ret void
}